; Function Attrs: nounwind uwtable
define dso_local void @slowlogPushEntryIfNeeded(ptr noundef %0, ptr noundef readonly captures(none) %1, i32 noundef %2, i64 noundef %3) local_unnamed_addr #0 {
  %5 = load i64, ptr getelementptr inbounds nuw (i8, ptr @server, i64 2744), align 8, !tbaa !72
  %6 = icmp slt i64 %5, 0
  %7 = load i64, ptr getelementptr inbounds nuw (i8, ptr @server, i64 2752), align 8
  %8 = icmp eq i64 %7, 0
  %or.cond = select i1 %6, i1 true, i1 %8
  br i1 %or.cond, label %.loopexit, label %9

9:                                                ; preds = %4
  %.not = icmp slt i64 %3, %5
  br i1 %.not, label %14, label %10

10:                                               ; preds = %9
  %11 = load ptr, ptr getelementptr inbounds nuw (i8, ptr @server, i64 2728), align 8, !tbaa !69
  %12 = tail call ptr @slowlogCreateEntry(ptr noundef %0, ptr noundef %1, i32 noundef %2, i64 noundef %3)
  %13 = tail call ptr @listAddNodeHead(ptr noundef %11, ptr noundef %12) #9
  %.pre = load i64, ptr getelementptr inbounds nuw (i8, ptr @server, i64 2752), align 8, !tbaa !73
  br label %14

14:                                               ; preds = %10, %9
  %15 = phi i64 [ %.pre, %10 ], [ %7, %9 ]
  %16 = load ptr, ptr getelementptr inbounds nuw (i8, ptr @server, i64 2728), align 8, !tbaa !69
  %17 = getelementptr inbounds nuw i8, ptr %16, i64 40
  %18 = load i64, ptr %17, align 8, !tbaa !74
  %19 = icmp ugt i64 %18, %15
  br i1 %19, label %.lr.ph, label %.loopexit

.lr.ph:                                           ; preds = %14, %.lr.ph
  %20 = phi ptr [ %23, %.lr.ph ], [ %16, %14 ]
  %21 = getelementptr inbounds nuw i8, ptr %20, i64 8
  %22 = load ptr, ptr %21, align 8, !tbaa !75
  tail call void @listDelNode(ptr noundef nonnull %20, ptr noundef %22) #9
  %23 = load ptr, ptr getelementptr inbounds nuw (i8, ptr @server, i64 2728), align 8, !tbaa !69
  %24 = getelementptr inbounds nuw i8, ptr %23, i64 40
  %25 = load i64, ptr %24, align 8, !tbaa !74
  %26 = load i64, ptr getelementptr inbounds nuw (i8, ptr @server, i64 2752), align 8, !tbaa !73
  %27 = icmp ugt i64 %25, %26
  br i1 %27, label %.lr.ph, label %.loopexit, !llvm.loop !76

.loopexit:                                        ; preds = %.lr.ph, %14, %4
  ret void
}